target datalayout = "e-m:e-p270:32:32-p271:32:32-p272:64:64-i64:64-i128:128-f80:128-n8:16:32:64-S128"
target triple = "x86_64-pc-linux-gnu"

%struct._zend_libxml_globals = type { %struct._zval_struct, %struct.smart_str, ptr, %struct._zend_fcall_info_cache, i8 }
%struct._zval_struct = type { %union._zend_value, %union.anon, %union.anon.2 }
%union._zend_value = type { i64 }
%union.anon = type { i32 }
%union.anon.2 = type { i32 }
%struct.smart_str = type { ptr, i64 }
%struct._zend_fcall_info_cache = type { ptr, ptr, ptr, ptr, ptr }
%struct._zend_execute_data = type { ptr, ptr, ptr, ptr, %struct._zval_struct, ptr, ptr, ptr, ptr }

@libxml_globals = internal global %struct._zend_libxml_globals zeroinitializer, align 8

; Function Attrs: nounwind uwtable
define zeroext i1 @php_libxml_disable_entity_loader(i1 noundef zeroext %0) #0 {
  %2 = alloca i8, align 1
  %3 = alloca i8, align 1
  %4 = zext i1 %0 to i8
  store i8 %4, ptr %2, align 1
  %5 = load i8, ptr getelementptr inbounds (%struct._zend_libxml_globals, ptr @libxml_globals, i32 0, i32 4), align 8
  %6 = trunc i8 %5 to i1
  %7 = zext i1 %6 to i8
  store i8 %7, ptr %3, align 1
  %8 = load i8, ptr %2, align 1
  %9 = trunc i8 %8 to i1
  %10 = zext i1 %9 to i8
  store i8 %10, ptr getelementptr inbounds (%struct._zend_libxml_globals, ptr @libxml_globals, i32 0, i32 4), align 8
  %11 = load i8, ptr %3, align 1
  %12 = trunc i8 %11 to i1
  ret i1 %12
}

; Function Attrs: nounwind uwtable
define hidden void @zif_libxml_disable_entity_loader(ptr noundef %0, ptr noundef %1) #0 {
  %3 = alloca ptr, align 8
  %4 = alloca ptr, align 8
  %5 = alloca ptr, align 8
  %6 = alloca i1, align 1
  %7 = alloca ptr, align 8
  %8 = alloca ptr, align 8
  %9 = alloca ptr, align 8
  %10 = alloca i8, align 1
  %11 = alloca i32, align 4
  %12 = alloca i8, align 1
  %13 = alloca ptr, align 8
  %14 = alloca ptr, align 8
  %15 = alloca ptr, align 8
  %16 = alloca i8, align 1
  %17 = alloca i32, align 4
  %18 = alloca ptr, align 8
  %19 = alloca ptr, align 8
  %20 = alloca i8, align 1
  %21 = alloca i32, align 4
  %22 = alloca i32, align 4
  %23 = alloca i32, align 4
  %24 = alloca i32, align 4
  %25 = alloca i32, align 4
  %26 = alloca ptr, align 8
  %27 = alloca ptr, align 8
  %28 = alloca i32, align 4
  %29 = alloca ptr, align 8
  %30 = alloca i8, align 1
  %31 = alloca i8, align 1
  %32 = alloca i32, align 4
  store ptr %0, ptr %18, align 8
  store ptr %1, ptr %19, align 8
  store i8 1, ptr %20, align 1
  br label %33

33:                                               ; preds = %2
  store i32 0, ptr %21, align 4
  store i32 0, ptr %22, align 4
  store i32 1, ptr %23, align 4
  %34 = load ptr, ptr %18, align 8
  %35 = getelementptr inbounds %struct._zend_execute_data, ptr %34, i32 0, i32 4
  %36 = getelementptr inbounds %struct._zval_struct, ptr %35, i32 0, i32 2
  %37 = load i32, ptr %36, align 4
  store i32 %37, ptr %24, align 4
  store i32 0, ptr %25, align 4
  store ptr null, ptr %27, align 8
  store i32 0, ptr %28, align 4
  store ptr null, ptr %29, align 8
  store i8 0, ptr %30, align 1
  store i8 0, ptr %31, align 1
  store i32 0, ptr %32, align 4
  br label %38

38:                                               ; preds = %33
  %39 = load i32, ptr %24, align 4
  %40 = load i32, ptr %22, align 4
  %41 = icmp ult i32 %39, %40
  %42 = xor i1 %41, true
  %43 = xor i1 %42, true
  %44 = zext i1 %43 to i32
  %45 = sext i32 %44 to i64
  %46 = icmp ne i64 %45, 0
  br i1 %46, label %56, label %47

47:                                               ; preds = %38
  %48 = load i32, ptr %24, align 4
  %49 = load i32, ptr %23, align 4
  %50 = icmp ugt i32 %48, %49
  %51 = xor i1 %50, true
  %52 = xor i1 %51, true
  %53 = zext i1 %52 to i32
  %54 = sext i32 %53 to i64
  %55 = icmp ne i64 %54, 0
  br i1 %55, label %56, label %59

56:                                               ; preds = %47, %38
  %57 = load i32, ptr %22, align 4
  %58 = load i32, ptr %23, align 4
  call void @zend_wrong_parameters_count_error(i32 noundef %57, i32 noundef %58)
  store i32 1, ptr %32, align 4
  br label %178

59:                                               ; preds = %47
  %60 = load ptr, ptr %18, align 8
  %61 = getelementptr inbounds %struct._zval_struct, ptr %60, i64 4
  store ptr %61, ptr %26, align 8
  store i8 1, ptr %31, align 1
  %62 = load i32, ptr %25, align 4
  %63 = add i32 %62, 1
  store i32 %63, ptr %25, align 4
  %64 = load i32, ptr %25, align 4
  %65 = load i32, ptr %22, align 4
  %66 = icmp ule i32 %64, %65
  br i1 %66, label %72, label %67

67:                                               ; preds = %59
  %68 = load i8, ptr %31, align 1
  %69 = trunc i8 %68 to i1
  %70 = zext i1 %69 to i32
  %71 = icmp eq i32 %70, 1
  br label %72

72:                                               ; preds = %67, %59
  %73 = phi i1 [ true, %59 ], [ %71, %67 ]
  call void @llvm.assume(i1 %73)
  %74 = load i32, ptr %25, align 4
  %75 = load i32, ptr %22, align 4
  %76 = icmp ugt i32 %74, %75
  br i1 %76, label %82, label %77

77:                                               ; preds = %72
  %78 = load i8, ptr %31, align 1
  %79 = trunc i8 %78 to i1
  %80 = zext i1 %79 to i32
  %81 = icmp eq i32 %80, 0
  br label %82

82:                                               ; preds = %77, %72
  %83 = phi i1 [ true, %72 ], [ %81, %77 ]
  call void @llvm.assume(i1 %83)
  %84 = load i8, ptr %31, align 1
  %85 = trunc i8 %84 to i1
  br i1 %85, label %86, label %97

86:                                               ; preds = %82
  %87 = load i32, ptr %25, align 4
  %88 = load i32, ptr %24, align 4
  %89 = icmp ugt i32 %87, %88
  %90 = xor i1 %89, true
  %91 = xor i1 %90, true
  %92 = zext i1 %91 to i32
  %93 = sext i32 %92 to i64
  %94 = icmp ne i64 %93, 0
  br i1 %94, label %95, label %96

95:                                               ; preds = %86
  br label %178

96:                                               ; preds = %86
  br label %97

97:                                               ; preds = %96, %82
  %98 = load ptr, ptr %26, align 8
  %99 = getelementptr inbounds %struct._zval_struct, ptr %98, i32 1
  store ptr %99, ptr %26, align 8
  %100 = load ptr, ptr %26, align 8
  store ptr %100, ptr %27, align 8
  %101 = load ptr, ptr %27, align 8
  %102 = load i32, ptr %25, align 4
  store ptr %101, ptr %13, align 8
  store ptr %20, ptr %14, align 8
  store ptr %30, ptr %15, align 8
  store i8 0, ptr %16, align 1
  store i32 %102, ptr %17, align 4
  %103 = load ptr, ptr %13, align 8
  %104 = load ptr, ptr %14, align 8
  %105 = load ptr, ptr %15, align 8
  %106 = load i8, ptr %16, align 1
  %107 = trunc i8 %106 to i1
  %108 = load i32, ptr %17, align 4
  store ptr %103, ptr %7, align 8
  store ptr %104, ptr %8, align 8
  store ptr %105, ptr %9, align 8
  %109 = zext i1 %107 to i8
  store i8 %109, ptr %10, align 1
  store i32 %108, ptr %11, align 4
  store i8 0, ptr %12, align 1
  %110 = load i8, ptr %10, align 1
  %111 = trunc i8 %110 to i1
  br i1 %111, label %112, label %114

112:                                              ; preds = %97
  %113 = load ptr, ptr %9, align 8
  store i8 0, ptr %113, align 1
  br label %114

114:                                              ; preds = %112, %97
  %115 = load ptr, ptr %7, align 8
  store ptr %115, ptr %3, align 8
  %116 = load ptr, ptr %3, align 8
  %117 = getelementptr inbounds %struct._zval_struct, ptr %116, i32 0, i32 1
  %118 = load i8, ptr %117, align 8
  %119 = zext i8 %118 to i32
  %120 = icmp eq i32 %119, 3
  br i1 %120, label %121, label %123

121:                                              ; preds = %114
  %122 = load ptr, ptr %8, align 8
  store i8 1, ptr %122, align 1
  br label %159

123:                                              ; preds = %114
  %124 = load ptr, ptr %7, align 8
  store ptr %124, ptr %4, align 8
  %125 = load ptr, ptr %4, align 8
  %126 = getelementptr inbounds %struct._zval_struct, ptr %125, i32 0, i32 1
  %127 = load i8, ptr %126, align 8
  %128 = zext i8 %127 to i32
  %129 = icmp eq i32 %128, 2
  br i1 %129, label %130, label %132

130:                                              ; preds = %123
  %131 = load ptr, ptr %8, align 8
  store i8 0, ptr %131, align 1
  br label %158

132:                                              ; preds = %123
  %133 = load i8, ptr %10, align 1
  %134 = trunc i8 %133 to i1
  br i1 %134, label %135, label %145

135:                                              ; preds = %132
  %136 = load ptr, ptr %7, align 8
  store ptr %136, ptr %5, align 8
  %137 = load ptr, ptr %5, align 8
  %138 = getelementptr inbounds %struct._zval_struct, ptr %137, i32 0, i32 1
  %139 = load i8, ptr %138, align 8
  %140 = zext i8 %139 to i32
  %141 = icmp eq i32 %140, 1
  br i1 %141, label %142, label %145

142:                                              ; preds = %135
  %143 = load ptr, ptr %9, align 8
  store i8 1, ptr %143, align 1
  %144 = load ptr, ptr %8, align 8
  store i8 0, ptr %144, align 1
  br label %158

145:                                              ; preds = %135, %132
  %146 = load i8, ptr %12, align 1
  %147 = trunc i8 %146 to i1
  br i1 %147, label %148, label %153

148:                                              ; preds = %145
  %149 = load ptr, ptr %7, align 8
  %150 = load ptr, ptr %8, align 8
  %151 = load i32, ptr %11, align 4
  %152 = call zeroext i1 @zend_flf_parse_arg_bool_slow(ptr noundef %149, ptr noundef %150, i32 noundef %151) #11
  store i1 %152, ptr %6, align 1
  br label %160

153:                                              ; preds = %145
  %154 = load ptr, ptr %7, align 8
  %155 = load ptr, ptr %8, align 8
  %156 = load i32, ptr %11, align 4
  %157 = call zeroext i1 @zend_parse_arg_bool_slow(ptr noundef %154, ptr noundef %155, i32 noundef %156) #11
  store i1 %157, ptr %6, align 1
  br label %160

158:                                              ; preds = %142, %130
  br label %159

159:                                              ; preds = %158, %121
  store i1 true, ptr %6, align 1
  br label %160

160:                                              ; preds = %159, %153, %148
  %161 = load i1, ptr %6, align 1
  %162 = xor i1 %161, true
  %163 = xor i1 %162, true
  %164 = xor i1 %163, true
  %165 = zext i1 %164 to i32
  %166 = sext i32 %165 to i64
  %167 = icmp ne i64 %166, 0
  br i1 %167, label %168, label %169

168:                                              ; preds = %160
  store i32 2, ptr %28, align 4
  store i32 9, ptr %32, align 4
  br label %178

169:                                              ; preds = %160
  %170 = load i32, ptr %25, align 4
  %171 = load i32, ptr %23, align 4
  %172 = icmp eq i32 %170, %171
  br i1 %172, label %176, label %173

173:                                              ; preds = %169
  %174 = load i32, ptr %23, align 4
  %175 = icmp eq i32 %174, -1
  br label %176

176:                                              ; preds = %173, %169
  %177 = phi i1 [ true, %169 ], [ %175, %173 ]
  call void @llvm.assume(i1 %177)
  br label %178

178:                                              ; preds = %176, %168, %95, %56
  %179 = load i32, ptr %32, align 4
  %180 = icmp ne i32 %179, 0
  %181 = xor i1 %180, true
  %182 = xor i1 %181, true
  %183 = zext i1 %182 to i32
  %184 = sext i32 %183 to i64
  %185 = icmp ne i64 %184, 0
  br i1 %185, label %186, label %192

186:                                              ; preds = %178
  %187 = load i32, ptr %32, align 4
  %188 = load i32, ptr %25, align 4
  %189 = load ptr, ptr %29, align 8
  %190 = load i32, ptr %28, align 4
  %191 = load ptr, ptr %27, align 8
  call void @zend_wrong_parameter_error(i32 noundef %187, i32 noundef %188, ptr noundef %189, i32 noundef %190, ptr noundef %191)
  br label %203

192:                                              ; preds = %178
  br label %193

193:                                              ; preds = %192
  br label %194

194:                                              ; preds = %193
  br label %195

195:                                              ; preds = %194
  %196 = load i8, ptr %20, align 1
  %197 = trunc i8 %196 to i1
  %198 = call zeroext i1 @php_libxml_disable_entity_loader(i1 noundef zeroext %197)
  %199 = select i1 %198, i32 3, i32 2
  %200 = load ptr, ptr %19, align 8
  %201 = getelementptr inbounds %struct._zval_struct, ptr %200, i32 0, i32 1
  store i32 %199, ptr %201, align 8
  br label %202

202:                                              ; preds = %195
  br label %203

203:                                              ; preds = %202, %186
  ret void
}