; Function Attrs: nounwind uwtable
define hidden void @zif_libxml_disable_entity_loader(ptr noundef %0, ptr nocapture noundef writeonly %1) #0 {
  %3 = alloca i8, align 1
  store i8 1, ptr %3, align 1
  %4 = getelementptr inbounds i8, ptr %0, i64 44
  %5 = load i32, ptr %4, align 4
  %6 = icmp ugt i32 %5, 1
  br i1 %6, label %7, label %8

7:                                                ; preds = %2
  tail call void @zend_wrong_parameters_count_error(i32 noundef 0, i32 noundef 1) #17
  br label %.thread87

8:                                                ; preds = %2
  %9 = icmp eq i32 %5, 0
  br i1 %9, label %.thread80, label %10

10:                                               ; preds = %8
  %11 = getelementptr inbounds i8, ptr %0, i64 88
  %12 = load i8, ptr %11, align 8
  switch i8 %12, label %14 [
    i8 3, label %.thread80
    i8 2, label %13
  ]

13:                                               ; preds = %10
  br label %.thread80

14:                                               ; preds = %10
  %15 = getelementptr inbounds i8, ptr %0, i64 80
  %16 = call zeroext i1 @zend_parse_arg_bool_slow(ptr noundef nonnull %15, ptr noundef nonnull %3, i32 noundef 1) #17
  %.fr = freeze i1 %16
  br i1 %.fr, label %..thread80_crit_edge, label %.thread87

..thread80_crit_edge:                             ; preds = %14
  %.pre = load i8, ptr %3, align 1
  %17 = and i8 %.pre, 1
  br label %.thread80

.thread87:                                        ; preds = %14, %7
  %.096 = phi i32 [ 1, %7 ], [ 9, %14 ]
  %.05895 = phi i32 [ 0, %7 ], [ 2, %14 ]
  %.05994 = phi ptr [ null, %7 ], [ %15, %14 ]
  %.06093 = phi i32 [ 0, %7 ], [ 1, %14 ]
  call void @zend_wrong_parameter_error(i32 noundef %.096, i32 noundef %.06093, ptr noundef null, i32 noundef %.05895, ptr noundef %.05994) #17
  br label %23

.thread80:                                        ; preds = %10, %13, %..thread80_crit_edge, %8
  %18 = phi i8 [ %17, %..thread80_crit_edge ], [ 1, %8 ], [ 0, %13 ], [ 1, %10 ]
  %19 = load i8, ptr getelementptr inbounds (%struct._zend_libxml_globals, ptr @libxml_globals, i64 0, i32 4), align 8
  %20 = and i8 %19, 1
  %.not = icmp eq i8 %20, 0
  store i8 %18, ptr getelementptr inbounds (%struct._zend_libxml_globals, ptr @libxml_globals, i64 0, i32 4), align 8
  %21 = select i1 %.not, i32 2, i32 3
  %22 = getelementptr inbounds i8, ptr %1, i64 8
  store i32 %21, ptr %22, align 8
  br label %23

23:                                               ; preds = %.thread80, %.thread87
  ret void
}